target datalayout = "e-m:e-p270:32:32-p271:32:32-p272:64:64-i64:64-i128:128-f80:128-n8:16:32:64-S128"
target triple = "x86_64-pc-linux-gnu"

%struct.Pdr_Man_t_ = type { ptr, ptr, ptr, ptr, ptr, ptr, ptr, ptr, %struct.Vec_Ptr_t_, ptr, i32, i32, ptr, ptr, ptr, ptr, ptr, ptr, i32, i32, ptr, ptr, ptr, i32, i32, ptr, ptr, ptr, ptr, ptr, ptr, ptr, ptr, ptr, ptr, ptr, ptr, ptr, ptr, i32, i32, i32, i32, i32, i32, i32, i32, i32, i32, i32, i32, i32, i32, i32, i32, i32, i64, i64, i64, i64, i64, i64, i64, i64, i64, i64, i64, i64 }
%struct.Vec_Ptr_t_ = type { i32, i32, ptr }
%struct.Vec_Vec_t_ = type { i32, i32, ptr }

; Function Attrs: inlinehint nounwind uwtable
define internal ptr @Vec_PtrEntry(ptr noundef %0, i32 noundef %1) #1 {
  %3 = alloca ptr, align 8
  %4 = alloca i32, align 4
  store ptr %0, ptr %3, align 8, !tbaa !92
  store i32 %1, ptr %4, align 4, !tbaa !3
  %5 = load ptr, ptr %3, align 8, !tbaa !92
  %6 = getelementptr inbounds nuw %struct.Vec_Ptr_t_, ptr %5, i32 0, i32 2
  %7 = load ptr, ptr %6, align 8, !tbaa !105
  %8 = load i32, ptr %4, align 4, !tbaa !3
  %9 = sext i32 %8 to i64
  %10 = getelementptr inbounds ptr, ptr %7, i64 %9
  %11 = load ptr, ptr %10, align 8, !tbaa !104
  ret ptr %11
}

; Function Attrs: inlinehint nounwind uwtable
define internal ptr @Vec_VecEntry(ptr noundef %0, i32 noundef %1) #1 {
  %3 = alloca ptr, align 8
  %4 = alloca i32, align 4
  store ptr %0, ptr %3, align 8, !tbaa !101
  store i32 %1, ptr %4, align 4, !tbaa !3
  %5 = load ptr, ptr %3, align 8, !tbaa !101
  %6 = getelementptr inbounds nuw %struct.Vec_Vec_t_, ptr %5, i32 0, i32 2
  %7 = load ptr, ptr %6, align 8, !tbaa !102
  %8 = load i32, ptr %4, align 4, !tbaa !3
  %9 = sext i32 %8 to i64
  %10 = getelementptr inbounds ptr, ptr %7, i64 %9
  %11 = load ptr, ptr %10, align 8, !tbaa !104
  ret ptr %11
}

; Function Attrs: inlinehint nounwind uwtable
define internal i32 @Vec_PtrSize(ptr noundef %0) #1 {
  %2 = alloca ptr, align 8
  store ptr %0, ptr %2, align 8, !tbaa !92
  %3 = load ptr, ptr %2, align 8, !tbaa !92
  %4 = getelementptr inbounds nuw %struct.Vec_Ptr_t_, ptr %3, i32 0, i32 1
  %5 = load i32, ptr %4, align 4, !tbaa !100
  ret i32 %5
}

; Function Attrs: nounwind uwtable
define i32 @Pdr_ManCheckContainment(ptr noundef %0, i32 noundef %1, ptr noundef %2) #0 {
  %4 = alloca i32, align 4
  %5 = alloca ptr, align 8
  %6 = alloca i32, align 4
  %7 = alloca ptr, align 8
  %8 = alloca ptr, align 8
  %9 = alloca ptr, align 8
  %10 = alloca i32, align 4
  %11 = alloca i32, align 4
  %12 = alloca i32, align 4
  %13 = alloca i32, align 4
  store ptr %0, ptr %5, align 8, !tbaa !43
  store i32 %1, ptr %6, align 4, !tbaa !3
  store ptr %2, ptr %7, align 8, !tbaa !45
  call void @llvm.lifetime.start.p0(i64 8, ptr %8) #10
  call void @llvm.lifetime.start.p0(i64 8, ptr %9) #10
  call void @llvm.lifetime.start.p0(i64 4, ptr %10) #10
  call void @llvm.lifetime.start.p0(i64 4, ptr %11) #10
  call void @llvm.lifetime.start.p0(i64 4, ptr %12) #10
  %14 = load ptr, ptr %5, align 8, !tbaa !43
  %15 = getelementptr inbounds nuw %struct.Pdr_Man_t_, ptr %14, i32 0, i32 13
  %16 = load ptr, ptr %15, align 8, !tbaa !71
  %17 = call i32 @Vec_PtrSize(ptr noundef %16)
  %18 = sub nsw i32 %17, 1
  store i32 %18, ptr %12, align 4, !tbaa !3
  %19 = load i32, ptr %6, align 4, !tbaa !3
  store i32 %19, ptr %10, align 4, !tbaa !3
  br label %20

20:                                               ; preds = %56, %3
  %21 = load i32, ptr %10, align 4, !tbaa !3
  %22 = load i32, ptr %12, align 4, !tbaa !3
  %23 = add nsw i32 %22, 1
  %24 = icmp slt i32 %21, %23
  br i1 %24, label %25, label %31

25:                                               ; preds = %20
  %26 = load ptr, ptr %5, align 8, !tbaa !43
  %27 = getelementptr inbounds nuw %struct.Pdr_Man_t_, ptr %26, i32 0, i32 14
  %28 = load ptr, ptr %27, align 8, !tbaa !91
  %29 = load i32, ptr %10, align 4, !tbaa !3
  %30 = call ptr @Vec_VecEntry(ptr noundef %28, i32 noundef %29)
  store ptr %30, ptr %9, align 8, !tbaa !92
  br label %31

31:                                               ; preds = %25, %20
  %32 = phi i1 [ false, %20 ], [ true, %25 ]
  br i1 %32, label %33, label %59

33:                                               ; preds = %31
  store i32 0, ptr %11, align 4, !tbaa !3
  br label %34

34:                                               ; preds = %52, %33
  %35 = load i32, ptr %11, align 4, !tbaa !3
  %36 = load ptr, ptr %9, align 8, !tbaa !92
  %37 = call i32 @Vec_PtrSize(ptr noundef %36)
  %38 = icmp slt i32 %35, %37
  br i1 %38, label %39, label %43

39:                                               ; preds = %34
  %40 = load ptr, ptr %9, align 8, !tbaa !92
  %41 = load i32, ptr %11, align 4, !tbaa !3
  %42 = call ptr @Vec_PtrEntry(ptr noundef %40, i32 noundef %41)
  store ptr %42, ptr %8, align 8, !tbaa !45
  br label %43

43:                                               ; preds = %39, %34
  %44 = phi i1 [ false, %34 ], [ true, %39 ]
  br i1 %44, label %45, label %55

45:                                               ; preds = %43
  %46 = load ptr, ptr %7, align 8, !tbaa !45
  %47 = load ptr, ptr %8, align 8, !tbaa !45
  %48 = call i32 @Pdr_SetContains(ptr noundef %46, ptr noundef %47)
  %49 = icmp ne i32 %48, 0
  br i1 %49, label %50, label %51

50:                                               ; preds = %45
  store i32 1, ptr %4, align 4
  store i32 1, ptr %13, align 4
  br label %60

51:                                               ; preds = %45
  br label %52

52:                                               ; preds = %51
  %53 = load i32, ptr %11, align 4, !tbaa !3
  %54 = add nsw i32 %53, 1
  store i32 %54, ptr %11, align 4, !tbaa !3
  br label %34, !llvm.loop !107

55:                                               ; preds = %43
  br label %56

56:                                               ; preds = %55
  %57 = load i32, ptr %10, align 4, !tbaa !3
  %58 = add nsw i32 %57, 1
  store i32 %58, ptr %10, align 4, !tbaa !3
  br label %20, !llvm.loop !108

59:                                               ; preds = %31
  store i32 0, ptr %4, align 4
  store i32 1, ptr %13, align 4
  br label %60

60:                                               ; preds = %59, %50
  call void @llvm.lifetime.end.p0(i64 4, ptr %12) #10
  call void @llvm.lifetime.end.p0(i64 4, ptr %11) #10
  call void @llvm.lifetime.end.p0(i64 4, ptr %10) #10
  call void @llvm.lifetime.end.p0(i64 8, ptr %9) #10
  call void @llvm.lifetime.end.p0(i64 8, ptr %8) #10
  %61 = load i32, ptr %4, align 4
  ret i32 %61
}