; Function Attrs: nounwind uwtable
define range(i32 0, 2) i32 @Pdr_ManCheckContainment(ptr noundef readonly captures(none) %0, i32 noundef %1, ptr noundef %2) local_unnamed_addr #3 {
  %4 = getelementptr inbounds nuw i8, ptr %0, i64 104
  %5 = load ptr, ptr %4, align 8, !tbaa !20
  %6 = getelementptr i8, ptr %5, i64 4
  %.val19 = load i32, ptr %6, align 4, !tbaa !59
  %7 = icmp slt i32 %1, %.val19
  br i1 %7, label %.lr.ph25, label %.critedge

.lr.ph25:                                         ; preds = %3
  %8 = getelementptr inbounds nuw i8, ptr %0, i64 112
  %9 = sext i32 %1 to i64
  br label %10

10:                                               ; preds = %.lr.ph25, %.critedge2
  %indvars.iv28 = phi i64 [ %9, %.lr.ph25 ], [ %indvars.iv.next29, %.critedge2 ]
  %11 = load ptr, ptr %8, align 8, !tbaa !66
  %12 = getelementptr i8, ptr %11, i64 8
  %.val20 = load ptr, ptr %12, align 8, !tbaa !67
  %13 = getelementptr inbounds ptr, ptr %.val20, i64 %indvars.iv28
  %14 = load ptr, ptr %13, align 8, !tbaa !36
  %15 = getelementptr i8, ptr %14, i64 4
  %.val1822 = load i32, ptr %15, align 4, !tbaa !59
  %16 = icmp sgt i32 %.val1822, 0
  br i1 %16, label %.lr.ph, label %.critedge2

.lr.ph:                                           ; preds = %10
  %17 = getelementptr i8, ptr %14, i64 8
  br label %21

18:                                               ; preds = %21
  %indvars.iv.next = add nuw nsw i64 %indvars.iv, 1
  %.val18 = load i32, ptr %15, align 4, !tbaa !59
  %19 = sext i32 %.val18 to i64
  %20 = icmp slt i64 %indvars.iv.next, %19
  br i1 %20, label %21, label %.critedge2, !llvm.loop !77

21:                                               ; preds = %.lr.ph, %18
  %indvars.iv = phi i64 [ 0, %.lr.ph ], [ %indvars.iv.next, %18 ]
  %.val = load ptr, ptr %17, align 8, !tbaa !35
  %22 = getelementptr inbounds nuw ptr, ptr %.val, i64 %indvars.iv
  %23 = load ptr, ptr %22, align 8, !tbaa !36
  %24 = tail call i32 @Pdr_SetContains(ptr noundef %2, ptr noundef %23) #19
  %.not = icmp eq i32 %24, 0
  br i1 %.not, label %18, label %.critedge

.critedge2:                                       ; preds = %18, %10
  %indvars.iv.next29 = add nsw i64 %indvars.iv28, 1
  %lftr.wideiv = trunc i64 %indvars.iv.next29 to i32
  %exitcond.not = icmp eq i32 %.val19, %lftr.wideiv
  br i1 %exitcond.not, label %.critedge, label %10, !llvm.loop !78

.critedge:                                        ; preds = %.critedge2, %21, %3
  %.0 = phi i32 [ 0, %3 ], [ 1, %21 ], [ 0, %.critedge2 ]
  ret i32 %.0
}